; Function Attrs: nounwind uwtable
define range(i32 0, 2) i32 @ossl_quic_channel_replace_local_cid(ptr noundef %0, ptr noundef readonly captures(none) %1) local_unnamed_addr #0 {
  %3 = getelementptr inbounds nuw i8, ptr %0, i64 56
  %4 = load ptr, ptr %3, align 8, !tbaa !44
  %5 = getelementptr inbounds nuw i8, ptr %0, i64 1228
  %6 = tail call i32 @ossl_quic_lcidm_debug_remove(ptr noundef %4, ptr noundef nonnull %5) #15
  %.not = icmp eq i32 %6, 0
  br i1 %.not, label %14, label %7

7:                                                ; preds = %2
  tail call void @llvm.memcpy.p0.p0.i64(ptr noundef nonnull align 4 dereferenceable(21) %5, ptr noundef nonnull align 1 dereferenceable(21) %1, i64 21, i1 false), !tbaa.struct !85
  %8 = getelementptr inbounds nuw i8, ptr %0, i64 216
  %9 = load ptr, ptr %8, align 8, !tbaa !109
  %10 = tail call i32 @ossl_quic_tx_packetiser_set_cur_scid(ptr noundef %9, ptr noundef nonnull %5) #15
  %.not9 = icmp eq i32 %10, 0
  br i1 %.not9, label %14, label %11

11:                                               ; preds = %7
  %12 = load ptr, ptr %3, align 8, !tbaa !44
  %13 = tail call i32 @ossl_quic_lcidm_debug_add(ptr noundef %12, ptr noundef nonnull %0, ptr noundef nonnull %5, i64 noundef 100) #15
  %.not10 = icmp ne i32 %13, 0
  %. = zext i1 %.not10 to i32
  br label %14

14:                                               ; preds = %11, %7, %2
  %.0 = phi i32 [ 0, %2 ], [ 0, %7 ], [ %., %11 ]
  ret i32 %.0
}